
 SWATVXD

 Start         Length     Name                   Class
 0001:00000000 000001BDAH _LTEXT                 CODE 32-bit
 0001:00001BDC 000001B68H _LDATA                 CODE 32-bit
 0002:00000000 0000016AFH _ITEXT                 ICODE 32-bit
 0002:000016B0 000003506H _IDATA                 ICODE 32-bit
 0003:00000000 000000000H _TEXT                  PCODE 32-bit
 0003:00000000 000000000H _DATA                  PCODE 32-bit
 0003:00000000 000001BACH _RCODE                 RCODE 16-bit

 Origin   Group
 0002:0   _IGROUP
 0001:0   _LGROUP
 0003:0   _PGROUP
 0000:0   FLAT

 Address       Export                  Alias

 0001:00001BEC SWAT_DDB                SWAT_DDB

  Address         Publics by Name

 0001:00001BE8       $SWAT_Clear_Keys
 0001:00001BDC       $SWAT_Get_Version
 0001:00001BE0       $SWAT_Out_Mono_String
 0001:00001BE4       $SWAT_SWATMSG
 0001:00001A7F       @SWAT_Clear_Keys
 0001:00001A5E       @SWAT_Get_Version
 0001:00001A6A       @SWAT_Out_Mono_String
 0001:00001A75       @SWAT_SWATMSG
 0001:00000DAE       BEGIN_MESSAGE_MODE
 0001:00000CCA       BEGIN_PM_APP
 0002:00000BA1       BREAKPOINT
 0001:00001AD5       CALC_SCROLL
 0001:00001AC1       CALC_VIDOFF
 0002:00000B67       CHK_BREAKPOINT
 0001:00000EA7       CLOSE_VM_NOTIFY
 0001:0000126D       CLOSE_VM_NOTIFY2
 0001:00001D90       COMMAND_TAIL
 0001:00000578       ConvertBuf
 0001:00000F55       CREATE_THREAD
 0001:0000090E       CREATE_VM
 0001:00000E80       CRIT_REBOOT_NOTIFY
 0001:00001246       CRIT_REBOOT_NOTIFY2
 0001:000035C0       DB2_FLAG
 0001:000035C4       DB3_FLAG
 0001:000035BC       DBG_FLAG
 0001:00000BFB       DEBUG_QUERY
 0001:00001039       DESTROY_THREAD
 0001:000009D7       DESTROY_VM
 0001:00001183       DESTROY_VM2
 0002:0000112B       DEVICE_INIT
 0001:00001DBE       DEVICE_LIST
 0001:00000E59       DEVICE_REBOOT_NOTIFY
 0001:0000121F       DEVICE_REBOOT_NOTIFY2
 0002:00001DE3       DEVICE_SERVICE_TAB
 0003:000003E8       DEVNAME
 0003:00000403       DEV_HNDL
 0001:00002221       DispBuf
 0001:00001B17       DISPLAY
 0003:000003F1       EMMNAME
 0001:00000DE7       END_MESSAGE_MODE
 0001:000011D1       END_MESSAGE_MODE2
 0001:00000D03       END_PM_APP
 0001:000011F8       END_PM_APP2
 0003:000003CC       ENVIR_SEG
 0002:00000A68       FIND_DEVICE
 0002:00000AAB       FIND_WINA20
 0002:000016DD       FNREGOFF
 0001:0000373A       Force_Keys
 0001:0000362A       FREQ
 0001:0000037B       GetRegister
 0001:00001294       GET_CONTENTION_HANDLER
 0001:0000136B       GET_SYSTEM_OPTION
 0001:000019B3       HookGP
 0001:00001972       HookPF
 0002:000016AD       HOOKPROC
 0002:00000000       HOOK_IRQ
 0001:00002A14       IDTR
 0003:00000414       INFO
 0000:00000066  Abs  INFOSIZE
 0003:00000413       INFO_CTL
 0002:0000119A       INIT_COMPLETE
 0001:00001D54       INIT_PROT_VEC
 0002:000012A4       INIT_SYMBOLS
 0001:0000174F       INT0D
 0001:000017C0       INT0E
 0001:00001D78       INT67_RMPHYSADDR
 0001:00001D74       INT67_SEGOFF
 0001:00002C14       IPF_FlagTab
 0001:000012BB       KERNEL32_INITIALIZED
 0001:000012E2       KERNEL32_SHUTDOWN
 0002:000016C0       LAST_EDX
 0001:00000001       LCLIRQ0
 0001:00000008       LCLIRQ1
 0001:0000000F       LCLIRQ2
 0001:00000016       LCLIRQ3
 0001:0000001D       LCLIRQ4
 0001:00000024       LCLIRQ5
 0001:0000002B       LCLIRQ6
 0001:00000032       LCLIRQ7
 0001:00001E02       LCL_CHR
 0001:0000015F       LCL_CONTROL_PROC
 0001:000005EC       LCL_DEBUG_OUT_SERVICE
 0001:000006F3       LCL_FATAL_ERROR_HANDLER
 0001:0000074E       LCL_GetSetDetailedVMError
 0001:00000151       Lcl_Get_Cur_VM_Handle
 0001:00000158       Lcl_Get_Sys_VM_Handle
 0001:00002A08       LCL_INT06_EBP
 0001:00002A0C       LCL_INT0D_EBP
 0001:00001420       LCL_INT0E
 0001:00002A10       LCL_INT0E_EBP
 0002:00000072       LCL_INT20
 0001:000006E6       LCL_IN_DEBUG_CHR
 0001:00001667       LCL_IPF
 0001:000029F4       LCL_IPF_FLAGS
 0001:0000066A       LCL_OUT_DEBUG_CHR
 0001:000002D5       LCL_OUT_DEBUG_STRING
 0001:000006A3       LCL_OUT_MONO_CHR
 0001:0000030F       LCL_OUT_MONO_STRING
 0001:00001DCE       LCL_PMHOOK_STR
 0001:00000213       LCL_PM_API_PROC
 0001:0000062B       LCL_TRACE_OUT_SERVICE
 0001:00001DCA       LCL_VXDHOOK_STR
 0003:000003C0       LOADER_FLAGS
 0003:000003C2       LOADER_SVC
 0001:00000349       LowerCase
 0001:00000354       LowerCaseECX
 0003:00000510       LSSF_BUF
 0003:0000151F       LSSF_BUFP
 0003:00001525       LSSF_CNT
 0003:00001521       LSSF_FH
 0003:00001527       LSSF_SYMCNT
 0003:0000152F       LSSF_SYMSUB
 0003:00001531       LSSF_XLAT
 0001:000035C8       MONO_VIDBASE
 0001:000031EE       MSGH1_BEGIN_MSG_MODE
 0001:00003110       MSGH1_BEGIN_PM_APP
 0001:000032EB       MSGH1_CLOSE_VM_NOTIFY
 0001:00003266       MSGH1_DEBUG_QUERY
 0001:00003216       MSGH1_END_MSG_MODE
 0001:00003138       MSGH1_END_PM_APP
 0001:0000323E       MSGH1_QUERY_DESTROY
 0001:0000328E       MSGH1_REBOOT_PROCESSOR
 0001:000030C0       MSGH1_VM_CRITICAL_INIT
 0001:000030E8       MSGH1_VM_INIT
 0001:00003188       MSGH1_VM_RESUME
 0001:00003160       MSGH1_VM_SUSPEND
 0001:000031D1       MSG_BEGIN_MSG_MODE
 0001:000030F3       MSG_BEGIN_PM_APP
 0001:000032CF       MSG_CLOSE_VM_NOTIFY
 0001:00003551       MSG_CLOSE_VM_NOTIFY2
 0001:00003347       MSG_CREATE_THREAD
 0001:00003366       MSG_CREATE_THREAD1
 0001:000032B5       MSG_CRIT_REBOOT_NOTIFY
 0001:00003536       MSG_CRIT_REBOOT_NOTIFY2
 0003:000001FD       MSG_CRLF
 0001:00002FA7       MSG_CVM
 0001:00002FC4       MSG_CVM_H1
 0001:00003249       MSG_DEBUG_QUERY
 0001:000033F3       MSG_DESTROY_THREAD
 0001:00003412       MSG_DESTROY_THREAD1
 0001:000034C7       MSG_DESTROY_VM2
 0001:00003299       MSG_DEVICE_REBOOT_NOTIFY
 0001:00003519       MSG_DEVICE_REBOOT_NOTIFY2
 0003:00000074       MSG_DUP_DEVICE
 0001:00003051       MSG_DVM
 0001:0000306E       MSG_DVM_H1
 0001:000034ED       MSG_END_MESSAGE_MODE2
 0001:000031F9       MSG_END_MSG_MODE
 0001:0000311B       MSG_END_PM_APP
 0001:00003506       MSG_END_PM_APP2
 0001:00002E4E       MSG_FATAL_ERROR
 0001:00002E5B       MSG_FATAL_ERROR0
 0001:00002E64       MSG_FATAL_ERROR_NULL
 0001:00003569       MSG_GET_CONTENTION_HANDLER
 0001:00002EFE       MSG_GSDVME
 0001:00002ED4       MSG_GSDVME0
 0001:00002EFE       MSG_GSDVME_EC
 0001:00002F07       MSG_GSDVME_TEXT
 0001:00002EF2       MSG_GSDVME_VM
 0001:00002E6B       MSG_HOOK_FEH_UGH
 0001:00002EA1       MSG_HOOK_ODS_UGH
 0002:00001BAF       MSG_ICP
 0003:0000012A       MSG_IDTR
 0003:00000143       MSG_IDTR_BASE
 0003:0000014D       MSG_IDTR_LIM
 0003:000002F8       MSG_IMPORT_INFO
 0003:00000315       MSG_IMPORT_INFO0
 0003:00000317       MSG_IMPORT_INFO1
 0003:0000031D       MSG_IMPORT_INFO2
 0003:00000251       MSG_IMPORT_IOCTL1
 0003:00000282       MSG_IMPORT_IOCTL2
 0003:000002A8       MSG_IMPORT_IOCTL3
 0003:0000022F       MSG_IMPORT_NOTCHR
 0003:000002CE       MSG_IMPORT_NULL
 0003:00000200       MSG_IMPORT_OPEN
 0001:00002BA9       MSG_IPF_HDR
 0001:00003587       MSG_KERNEL32_INITIALIZED
 0001:000035A3       MSG_KERNEL32_SHUTDOWN
 0001:00002E18       MSG_MAPINFO
 0001:00002E3E       MSG_MAPINFO0
 0001:00002E49       MSG_MAPINFO1
 0003:0000018A       MSG_MAXOFF
 0003:00000155       MSG_MAXVER
 0003:00000168       MSG_MAXVER_X
 0003:0000009E       MSG_NOINSTALL
 0003:0000016F       MSG_NOMAX
 0002:00001BEF       MSG_NOSYMB
 0003:000000E5       MSG_NO_INFO
 0003:000000CC       MSG_NO_SWAT
 0002:00001C86       MSG_NO_WINA20
 0002:00001CAF       MSG_PAGING_OFF
 0002:00001CC8       MSG_PAGING_ON
 0003:0000019E       MSG_PAK
 0003:000001D2       MSG_PAKORESC
 0002:00001B75       MSG_PDI
 0002:00001B87       MSG_PDI_UGH
 0001:0000341E       MSG_PNP_NEW_DEVNODE
 0001:000032F6       MSG_POWER_EVENT
 0001:00003221       MSG_QUERY_DESTROY
 0001:00003271       MSG_REBOOT_PROCESSOR
 0003:00000000       MSG_RMI
 0002:00001BC3       MSG_ROM_BREAKPOINTS
 0001:0000308B       MSG_SCEX
 0002:00001B4D       MSG_SCI
 0001:00003193       MSG_SDF
 0001:000031B0       MSG_SDF_H1
 0001:000031BF       MSG_SDF_H2
 0001:000031CA       MSG_SDF_H3
 0001:00003079       MSG_SEX
 0001:00002F57       MSG_SVI
 0001:00002F74       MSG_SVI_H1
 0001:00002F7F       MSG_SVT
 0001:00002F9C       MSG_SVT_H1
 0003:00000333       MSG_SYMB_INFO
 0003:00000333       MSG_SYMB_INFO1
 0003:00000353       MSG_SYMB_INFO2
 0003:000003A3       MSG_SYMB_NONE
 0001:00003469       MSG_SYSTEM_EXIT2
 0001:0000347D       MSG_SYS_CRITICAL_EXIT2
 0001:00003328       MSG_SYS_DYNAMIC_DEVICE_EXIT
 0001:00003309       MSG_SYS_DYNAMIC_DEVICE_INIT
 0001:00003450       MSG_SYS_VM_TERMINATE2
 0001:0000339D       MSG_TERMINATE_THREAD
 0001:000033BC       MSG_TERMINATE_THREAD1
 0001:00003372       MSG_THREAD_INIT
 0001:00003391       MSG_THREAD_INIT1
 0001:000033C8       MSG_THREAD_NOT_EXECUTEABLE
 0001:000033E7       MSG_THREAD_NOT_EXECUTEABLE1
 0001:00002DF8       MSG_THRUXITWARN
 0001:00002FCF       MSG_VMT
 0001:00002FEC       MSG_VMT_H1
 0001:000030A3       MSG_VM_CRITICAL_INIT
 0001:000030CB       MSG_VM_INIT
 0001:000034AC       MSG_VM_NOT_EXECUTEABLE2
 0001:0000316B       MSG_VM_RESUME
 0001:00003143       MSG_VM_SUSPEND
 0001:000034DA       MSG_VM_SUSPEND2
 0001:00003497       MSG_VM_TERMINATE2
 0001:00002FF7       MSG_VNE
 0001:00003014       MSG_VNE_H1
 0001:00003026       MSG_VNE_X
 0002:00001C36       MSG_VXDHK_NOFND
 0002:00001C56       MSG_VXDHK_NOFND0
 0001:00003435       MSG_W32_DEVICEIOCONTROL
 0002:00001CE0       MSG_WFW
 0002:00001C61       MSG_WINA20
 0002:00001B1C       MSG_WKD
 0003:000000FE       MSG_XMS_VER
 0003:00000113       MSG_XMS_VER_X1
 0003:00000115       MSG_XMS_VER_X2
 0003:00000122       MSG_XMS_VER_X3
 0001:000013DC       NAME_AND_CALL
 0001:00000047       NULL_PROC
 0001:000029FC       OLDINT06_FOFF
 0001:00002A00       OLDINT0D_FOFF
 0001:00002A1A       OLDINT0D_FVEC
 0001:00002A04       OLDINT0E_FOFF
 0001:00002A22       OLDINT0E_FVEC
 0002:00001B18       OLDINT20_FOFF
 0001:00001C44       OLDIRQ0_FVEC
 0001:00001C4C       OLDIRQ1_FVEC
 0001:00001C54       OLDIRQ2_FVEC
 0001:00001C5C       OLDIRQ3_FVEC
 0001:00001C64       OLDIRQ4_FVEC
 0001:00001C6C       OLDIRQ5_FVEC
 0001:00001C74       OLDIRQ6_FVEC
 0001:00001C7C       OLDIRQ7_FVEC
 0001:00001DD2       OLD_Control_Proc
 0001:00001DF2       OLD_DEBUG_OUT_SERVICE
 0001:00001DFA       OLD_FATAL_ERROR_HANDLER
 0001:00001DFE       OLD_GetSetDetailedVMError
 0001:00001DDA       OLD_HANDLER
 0001:00001DEE       OLD_IN_DEBUG_CHR
 0001:00001DE2       OLD_OUT_DEBUG_CHR
 0001:00001DDE       OLD_OUT_DEBUG_STRING
 0001:00001DEA       OLD_OUT_MONO_CHR
 0001:00001DE6       OLD_OUT_MONO_STRING
 0001:00001DD6       OLD_PM_API_Proc
 0001:00001DF6       OLD_TRACE_OUT_SERVICE
 0001:000015EA       OutString
 0001:000007FD       PAD5_HOTKEY_CB
 0001:00000863       PAD5_MSGBOX_CB
 0003:0000047A       PAGING_IMPORT
 0000:00000006  Abs  PAGING_IMPORT_LEN
 0002:000016B8       PH_HOOKBITS0
 0002:000016BC       PH_HOOKBITS1
 0001:00001C24       PLCLIRQ
 0001:00001DC6       PMHOOKS_HEAD
 0001:00001072       PNP_NEW_DEVNODE
 0001:00000EE0       POWER_EVENT
 0000:00000080  Abs  PSP_PARM_COUNT
 0000:00000081  Abs  PSP_PARM_STRING
 0001:00000E20       QUERY_DESTROY
 0001:00001398       RDI_SUB
 0001:00000C34       REBOOT_PROCESSOR
 0002:000016E1       REGLIST
 0001:00001386       REHOOK_DBG_INTS
 0003:000003BE       RMI_FLAG
 0003:0000160E       RMI_PAUSE
 0003:000003C6       RMI_REFDATA
 0003:0000040D       RM_IDTR
 0001:000019F4       SEL2BASE
 0001:00001602       SetRWBit
 0002:00000203       SETUP_DBGFLAGS
 0002:00001010       SETUP_DBG_INTS
 0002:00000AEF       SETUP_DUALDISPLAY
 0002:0000125C       SETUP_MONO
 0002:00001162       SETUP_PAD5
 0002:000008B1       SETUP_PMHOOKS
 0002:00000BA4       SETUP_SWAT
 0002:00000FE3       SETUP_TSS
 0002:00000738       SETUP_VXDHOOKS
 0001:00000C6D       SET_DEVICE_FOCUS
 0002:00000B12       SHOW_PAGING
 0002:00000B47       SHOW_WFW
 0002:00000723       STRLEN
 0002:000016C4       STR_386SWAT
 0002:000016CC       STR_PAGING
 0002:000016D3       STR_REHOOK123
 0003:00000405       SWATINFO
 0001:00001D8C       SWATINFO_LIN
 0001:00001D66       SWATINT67_VEC
 0001:00001D60       SWATMSG_FVEC
 0001:00001D7C       SWATMSG_TEXT
 0001:00001D6C       SWATTER_FVEC
 0002:000015DF       SWATVXD_GET_IGROUP
 0002:000015E4       SWATVXD_GET_IGROUP_L
 0001:00001BD0       SWATVXD_GET_LGROUP
 0001:00001BD5       SWATVXD_GET_LGROUP_L
 0001:00000039       SWAT_CONTROL
 0001:00001D94       SWAT_CS
 0001:00001D98       SWAT_CS_BASE
 0001:00001BEC       SWAT_DDB
 0001:00001D96       SWAT_DS
 0001:000029F8       SWAT_IPF_STR_FOFF
 0001:00000049       SWAT_PM_API
 0000:0000012E  Abs  SWAT_VER
 0000:00000003  Abs  SWAT_VERH
 0000:00000002  Abs  SWAT_VERL
 0000:00000033  Abs  SWAT_VERS_H
 0000:00000030  Abs  SWAT_VERS_T
 0000:00000032  Abs  SWAT_VERS_U
 0001:0000010A       SWAT_VM_API
 0002:000013B8       SYMTRANS
 0001:00000A10       SYSTEM_EXIT
 0001:000010E7       SYSTEM_EXIT2
 0001:00000AD3       SYS_CRITICAL_EXIT
 0001:0000110E       SYS_CRITICAL_EXIT2
 0002:0000007F       SYS_CRITICAL_INIT
 0001:00000F2E       SYS_DYNAMIC_DEVICE_EXIT
 0001:00000F07       SYS_DYNAMIC_DEVICE_INIT
 0001:00000864       SYS_VM_INIT
 0001:000008D5       SYS_VM_TERMINATE
 0001:000010C0       SYS_VM_TERMINATE2
 0003:000003FA       szSWATVXD$
 0001:00000FC7       TERMINATE_THREAD
 0001:00000F8E       THREAD_INIT
 0001:00001000       THREAD_NOT_EXECUTEABLE
 0001:00001BAA       TOHEX
 0002:000011D0       TrapCodeWrites
 0001:0000133A       UNDO_PMHOOKS
 0001:00001309       UNDO_VXDHOOKS
 0001:00000096       V86_INT67_HOOK
 0002:000016B0       VH_HOOKBITS0
 0002:000016B4       VH_HOOKBITS1
 0002:00001F23       VMM_NAME
 0002:00001F27       VMM_SYMS
 0003:000003CA       VMM_VERSION
 0001:00000B0E       VM_CRITICAL_INIT
 0001:00000B47       VM_INIT
 0001:00000980       VM_NOT_EXECUTEABLE
 0001:0000115C       VM_NOT_EXECUTEABLE2
 0001:00000D75       VM_RESUME
 0001:00000D3C       VM_SUSPEND
 0001:000011AA       VM_SUSPEND2
 0001:00000947       VM_TERMINATE
 0001:00001135       VM_TERMINATE2
 0001:00001F9E       VNE_TAB
 0001:00001DC2       VXDHOOKS_HEAD
 0001:00001D50       VXD_FILE_4GB
 0001:00001D52       VXD_FILE_CR3
 0001:00001099       W32_DEVICEIOCONTROL
 0001:00001B8D       WDEB_DISPLAY
 0001:00001D9C       WIN3_VERSION
 0002:000015E9       WINVARS
 0001:00000000       WKDSWAT
 0001:00001A38       WKD_PMAPI
 0003:00000409       XMS

  Address         Publics by Value

 0000:00000002  Abs  SWAT_VERL
 0000:00000003  Abs  SWAT_VERH
 0000:00000006  Abs  PAGING_IMPORT_LEN
 0000:00000030  Abs  SWAT_VERS_T
 0000:00000032  Abs  SWAT_VERS_U
 0000:00000033  Abs  SWAT_VERS_H
 0000:00000066  Abs  INFOSIZE
 0000:00000080  Abs  PSP_PARM_COUNT
 0000:00000081  Abs  PSP_PARM_STRING
 0000:0000012E  Abs  SWAT_VER
 0001:00000000       WKDSWAT
 0001:00000001       LCLIRQ0
 0001:00000008       LCLIRQ1
 0001:0000000F       LCLIRQ2
 0001:00000016       LCLIRQ3
 0001:0000001D       LCLIRQ4
 0001:00000024       LCLIRQ5
 0001:0000002B       LCLIRQ6
 0001:00000032       LCLIRQ7
 0001:00000039       SWAT_CONTROL
 0001:00000047       NULL_PROC
 0001:00000049       SWAT_PM_API
 0001:00000096       V86_INT67_HOOK
 0001:0000010A       SWAT_VM_API
 0001:00000151       Lcl_Get_Cur_VM_Handle
 0001:00000158       Lcl_Get_Sys_VM_Handle
 0001:0000015F       LCL_CONTROL_PROC
 0001:00000213       LCL_PM_API_PROC
 0001:000002D5       LCL_OUT_DEBUG_STRING
 0001:0000030F       LCL_OUT_MONO_STRING
 0001:00000349       LowerCase
 0001:00000354       LowerCaseECX
 0001:0000037B       GetRegister
 0001:00000578       ConvertBuf
 0001:000005EC       LCL_DEBUG_OUT_SERVICE
 0001:0000062B       LCL_TRACE_OUT_SERVICE
 0001:0000066A       LCL_OUT_DEBUG_CHR
 0001:000006A3       LCL_OUT_MONO_CHR
 0001:000006E6       LCL_IN_DEBUG_CHR
 0001:000006F3       LCL_FATAL_ERROR_HANDLER
 0001:0000074E       LCL_GetSetDetailedVMError
 0001:000007FD       PAD5_HOTKEY_CB
 0001:00000863       PAD5_MSGBOX_CB
 0001:00000864       SYS_VM_INIT
 0001:000008D5       SYS_VM_TERMINATE
 0001:0000090E       CREATE_VM
 0001:00000947       VM_TERMINATE
 0001:00000980       VM_NOT_EXECUTEABLE
 0001:000009D7       DESTROY_VM
 0001:00000A10       SYSTEM_EXIT
 0001:00000AD3       SYS_CRITICAL_EXIT
 0001:00000B0E       VM_CRITICAL_INIT
 0001:00000B47       VM_INIT
 0001:00000BFB       DEBUG_QUERY
 0001:00000C34       REBOOT_PROCESSOR
 0001:00000C6D       SET_DEVICE_FOCUS
 0001:00000CCA       BEGIN_PM_APP
 0001:00000D03       END_PM_APP
 0001:00000D3C       VM_SUSPEND
 0001:00000D75       VM_RESUME
 0001:00000DAE       BEGIN_MESSAGE_MODE
 0001:00000DE7       END_MESSAGE_MODE
 0001:00000E20       QUERY_DESTROY
 0001:00000E59       DEVICE_REBOOT_NOTIFY
 0001:00000E80       CRIT_REBOOT_NOTIFY
 0001:00000EA7       CLOSE_VM_NOTIFY
 0001:00000EE0       POWER_EVENT
 0001:00000F07       SYS_DYNAMIC_DEVICE_INIT
 0001:00000F2E       SYS_DYNAMIC_DEVICE_EXIT
 0001:00000F55       CREATE_THREAD
 0001:00000F8E       THREAD_INIT
 0001:00000FC7       TERMINATE_THREAD
 0001:00001000       THREAD_NOT_EXECUTEABLE
 0001:00001039       DESTROY_THREAD
 0001:00001072       PNP_NEW_DEVNODE
 0001:00001099       W32_DEVICEIOCONTROL
 0001:000010C0       SYS_VM_TERMINATE2
 0001:000010E7       SYSTEM_EXIT2
 0001:0000110E       SYS_CRITICAL_EXIT2
 0001:00001135       VM_TERMINATE2
 0001:0000115C       VM_NOT_EXECUTEABLE2
 0001:00001183       DESTROY_VM2
 0001:000011AA       VM_SUSPEND2
 0001:000011D1       END_MESSAGE_MODE2
 0001:000011F8       END_PM_APP2
 0001:0000121F       DEVICE_REBOOT_NOTIFY2
 0001:00001246       CRIT_REBOOT_NOTIFY2
 0001:0000126D       CLOSE_VM_NOTIFY2
 0001:00001294       GET_CONTENTION_HANDLER
 0001:000012BB       KERNEL32_INITIALIZED
 0001:000012E2       KERNEL32_SHUTDOWN
 0001:00001309       UNDO_VXDHOOKS
 0001:0000133A       UNDO_PMHOOKS
 0001:0000136B       GET_SYSTEM_OPTION
 0001:00001386       REHOOK_DBG_INTS
 0001:00001398       RDI_SUB
 0001:000013DC       NAME_AND_CALL
 0001:00001420       LCL_INT0E
 0001:000015EA       OutString
 0001:00001602       SetRWBit
 0001:00001667       LCL_IPF
 0001:0000174F       INT0D
 0001:000017C0       INT0E
 0001:00001972       HookPF
 0001:000019B3       HookGP
 0001:000019F4       SEL2BASE
 0001:00001A38       WKD_PMAPI
 0001:00001A5E       @SWAT_Get_Version
 0001:00001A6A       @SWAT_Out_Mono_String
 0001:00001A75       @SWAT_SWATMSG
 0001:00001A7F       @SWAT_Clear_Keys
 0001:00001AC1       CALC_VIDOFF
 0001:00001AD5       CALC_SCROLL
 0001:00001B17       DISPLAY
 0001:00001B8D       WDEB_DISPLAY
 0001:00001BAA       TOHEX
 0001:00001BD0       SWATVXD_GET_LGROUP
 0001:00001BD5       SWATVXD_GET_LGROUP_L
 0001:00001BDC       $SWAT_Get_Version
 0001:00001BE0       $SWAT_Out_Mono_String
 0001:00001BE4       $SWAT_SWATMSG
 0001:00001BE8       $SWAT_Clear_Keys
 0001:00001BEC       SWAT_DDB
 0001:00001C24       PLCLIRQ
 0001:00001C44       OLDIRQ0_FVEC
 0001:00001C4C       OLDIRQ1_FVEC
 0001:00001C54       OLDIRQ2_FVEC
 0001:00001C5C       OLDIRQ3_FVEC
 0001:00001C64       OLDIRQ4_FVEC
 0001:00001C6C       OLDIRQ5_FVEC
 0001:00001C74       OLDIRQ6_FVEC
 0001:00001C7C       OLDIRQ7_FVEC
 0001:00001D50       VXD_FILE_4GB
 0001:00001D52       VXD_FILE_CR3
 0001:00001D54       INIT_PROT_VEC
 0001:00001D60       SWATMSG_FVEC
 0001:00001D66       SWATINT67_VEC
 0001:00001D6C       SWATTER_FVEC
 0001:00001D74       INT67_SEGOFF
 0001:00001D78       INT67_RMPHYSADDR
 0001:00001D7C       SWATMSG_TEXT
 0001:00001D8C       SWATINFO_LIN
 0001:00001D90       COMMAND_TAIL
 0001:00001D94       SWAT_CS
 0001:00001D96       SWAT_DS
 0001:00001D98       SWAT_CS_BASE
 0001:00001D9C       WIN3_VERSION
 0001:00001DBE       DEVICE_LIST
 0001:00001DC2       VXDHOOKS_HEAD
 0001:00001DC6       PMHOOKS_HEAD
 0001:00001DCA       LCL_VXDHOOK_STR
 0001:00001DCE       LCL_PMHOOK_STR
 0001:00001DD2       OLD_Control_Proc
 0001:00001DD6       OLD_PM_API_Proc
 0001:00001DDA       OLD_HANDLER
 0001:00001DDE       OLD_OUT_DEBUG_STRING
 0001:00001DE2       OLD_OUT_DEBUG_CHR
 0001:00001DE6       OLD_OUT_MONO_STRING
 0001:00001DEA       OLD_OUT_MONO_CHR
 0001:00001DEE       OLD_IN_DEBUG_CHR
 0001:00001DF2       OLD_DEBUG_OUT_SERVICE
 0001:00001DF6       OLD_TRACE_OUT_SERVICE
 0001:00001DFA       OLD_FATAL_ERROR_HANDLER
 0001:00001DFE       OLD_GetSetDetailedVMError
 0001:00001E02       LCL_CHR
 0001:00001F9E       VNE_TAB
 0001:00002221       DispBuf
 0001:000029F4       LCL_IPF_FLAGS
 0001:000029F8       SWAT_IPF_STR_FOFF
 0001:000029FC       OLDINT06_FOFF
 0001:00002A00       OLDINT0D_FOFF
 0001:00002A04       OLDINT0E_FOFF
 0001:00002A08       LCL_INT06_EBP
 0001:00002A0C       LCL_INT0D_EBP
 0001:00002A10       LCL_INT0E_EBP
 0001:00002A14       IDTR
 0001:00002A1A       OLDINT0D_FVEC
 0001:00002A22       OLDINT0E_FVEC
 0001:00002BA9       MSG_IPF_HDR
 0001:00002C14       IPF_FlagTab
 0001:00002DF8       MSG_THRUXITWARN
 0001:00002E18       MSG_MAPINFO
 0001:00002E3E       MSG_MAPINFO0
 0001:00002E49       MSG_MAPINFO1
 0001:00002E4E       MSG_FATAL_ERROR
 0001:00002E5B       MSG_FATAL_ERROR0
 0001:00002E64       MSG_FATAL_ERROR_NULL
 0001:00002E6B       MSG_HOOK_FEH_UGH
 0001:00002EA1       MSG_HOOK_ODS_UGH
 0001:00002ED4       MSG_GSDVME0
 0001:00002EF2       MSG_GSDVME_VM
 0001:00002EFE       MSG_GSDVME
 0001:00002EFE       MSG_GSDVME_EC
 0001:00002F07       MSG_GSDVME_TEXT
 0001:00002F57       MSG_SVI
 0001:00002F74       MSG_SVI_H1
 0001:00002F7F       MSG_SVT
 0001:00002F9C       MSG_SVT_H1
 0001:00002FA7       MSG_CVM
 0001:00002FC4       MSG_CVM_H1
 0001:00002FCF       MSG_VMT
 0001:00002FEC       MSG_VMT_H1
 0001:00002FF7       MSG_VNE
 0001:00003014       MSG_VNE_H1
 0001:00003026       MSG_VNE_X
 0001:00003051       MSG_DVM
 0001:0000306E       MSG_DVM_H1
 0001:00003079       MSG_SEX
 0001:0000308B       MSG_SCEX
 0001:000030A3       MSG_VM_CRITICAL_INIT
 0001:000030C0       MSGH1_VM_CRITICAL_INIT
 0001:000030CB       MSG_VM_INIT
 0001:000030E8       MSGH1_VM_INIT
 0001:000030F3       MSG_BEGIN_PM_APP
 0001:00003110       MSGH1_BEGIN_PM_APP
 0001:0000311B       MSG_END_PM_APP
 0001:00003138       MSGH1_END_PM_APP
 0001:00003143       MSG_VM_SUSPEND
 0001:00003160       MSGH1_VM_SUSPEND
 0001:0000316B       MSG_VM_RESUME
 0001:00003188       MSGH1_VM_RESUME
 0001:00003193       MSG_SDF
 0001:000031B0       MSG_SDF_H1
 0001:000031BF       MSG_SDF_H2
 0001:000031CA       MSG_SDF_H3
 0001:000031D1       MSG_BEGIN_MSG_MODE
 0001:000031EE       MSGH1_BEGIN_MSG_MODE
 0001:000031F9       MSG_END_MSG_MODE
 0001:00003216       MSGH1_END_MSG_MODE
 0001:00003221       MSG_QUERY_DESTROY
 0001:0000323E       MSGH1_QUERY_DESTROY
 0001:00003249       MSG_DEBUG_QUERY
 0001:00003266       MSGH1_DEBUG_QUERY
 0001:00003271       MSG_REBOOT_PROCESSOR
 0001:0000328E       MSGH1_REBOOT_PROCESSOR
 0001:00003299       MSG_DEVICE_REBOOT_NOTIFY
 0001:000032B5       MSG_CRIT_REBOOT_NOTIFY
 0001:000032CF       MSG_CLOSE_VM_NOTIFY
 0001:000032EB       MSGH1_CLOSE_VM_NOTIFY
 0001:000032F6       MSG_POWER_EVENT
 0001:00003309       MSG_SYS_DYNAMIC_DEVICE_INIT
 0001:00003328       MSG_SYS_DYNAMIC_DEVICE_EXIT
 0001:00003347       MSG_CREATE_THREAD
 0001:00003366       MSG_CREATE_THREAD1
 0001:00003372       MSG_THREAD_INIT
 0001:00003391       MSG_THREAD_INIT1
 0001:0000339D       MSG_TERMINATE_THREAD
 0001:000033BC       MSG_TERMINATE_THREAD1
 0001:000033C8       MSG_THREAD_NOT_EXECUTEABLE
 0001:000033E7       MSG_THREAD_NOT_EXECUTEABLE1
 0001:000033F3       MSG_DESTROY_THREAD
 0001:00003412       MSG_DESTROY_THREAD1
 0001:0000341E       MSG_PNP_NEW_DEVNODE
 0001:00003435       MSG_W32_DEVICEIOCONTROL
 0001:00003450       MSG_SYS_VM_TERMINATE2
 0001:00003469       MSG_SYSTEM_EXIT2
 0001:0000347D       MSG_SYS_CRITICAL_EXIT2
 0001:00003497       MSG_VM_TERMINATE2
 0001:000034AC       MSG_VM_NOT_EXECUTEABLE2
 0001:000034C7       MSG_DESTROY_VM2
 0001:000034DA       MSG_VM_SUSPEND2
 0001:000034ED       MSG_END_MESSAGE_MODE2
 0001:00003506       MSG_END_PM_APP2
 0001:00003519       MSG_DEVICE_REBOOT_NOTIFY2
 0001:00003536       MSG_CRIT_REBOOT_NOTIFY2
 0001:00003551       MSG_CLOSE_VM_NOTIFY2
 0001:00003569       MSG_GET_CONTENTION_HANDLER
 0001:00003587       MSG_KERNEL32_INITIALIZED
 0001:000035A3       MSG_KERNEL32_SHUTDOWN
 0001:000035BC       DBG_FLAG
 0001:000035C0       DB2_FLAG
 0001:000035C4       DB3_FLAG
 0001:000035C8       MONO_VIDBASE
 0001:0000362A       FREQ
 0001:0000373A       Force_Keys
 0002:00000000       HOOK_IRQ
 0002:00000072       LCL_INT20
 0002:0000007F       SYS_CRITICAL_INIT
 0002:00000203       SETUP_DBGFLAGS
 0002:00000723       STRLEN
 0002:00000738       SETUP_VXDHOOKS
 0002:000008B1       SETUP_PMHOOKS
 0002:00000A68       FIND_DEVICE
 0002:00000AAB       FIND_WINA20
 0002:00000AEF       SETUP_DUALDISPLAY
 0002:00000B12       SHOW_PAGING
 0002:00000B47       SHOW_WFW
 0002:00000B67       CHK_BREAKPOINT
 0002:00000BA1       BREAKPOINT
 0002:00000BA4       SETUP_SWAT
 0002:00000FE3       SETUP_TSS
 0002:00001010       SETUP_DBG_INTS
 0002:0000112B       DEVICE_INIT
 0002:00001162       SETUP_PAD5
 0002:0000119A       INIT_COMPLETE
 0002:000011D0       TrapCodeWrites
 0002:0000125C       SETUP_MONO
 0002:000012A4       INIT_SYMBOLS
 0002:000013B8       SYMTRANS
 0002:000015DF       SWATVXD_GET_IGROUP
 0002:000015E4       SWATVXD_GET_IGROUP_L
 0002:000015E9       WINVARS
 0002:000016AD       HOOKPROC
 0002:000016B0       VH_HOOKBITS0
 0002:000016B4       VH_HOOKBITS1
 0002:000016B8       PH_HOOKBITS0
 0002:000016BC       PH_HOOKBITS1
 0002:000016C0       LAST_EDX
 0002:000016C4       STR_386SWAT
 0002:000016CC       STR_PAGING
 0002:000016D3       STR_REHOOK123
 0002:000016DD       FNREGOFF
 0002:000016E1       REGLIST
 0002:00001B18       OLDINT20_FOFF
 0002:00001B1C       MSG_WKD
 0002:00001B4D       MSG_SCI
 0002:00001B75       MSG_PDI
 0002:00001B87       MSG_PDI_UGH
 0002:00001BAF       MSG_ICP
 0002:00001BC3       MSG_ROM_BREAKPOINTS
 0002:00001BEF       MSG_NOSYMB
 0002:00001C36       MSG_VXDHK_NOFND
 0002:00001C56       MSG_VXDHK_NOFND0
 0002:00001C61       MSG_WINA20
 0002:00001C86       MSG_NO_WINA20
 0002:00001CAF       MSG_PAGING_OFF
 0002:00001CC8       MSG_PAGING_ON
 0002:00001CE0       MSG_WFW
 0002:00001DE3       DEVICE_SERVICE_TAB
 0002:00001F23       VMM_NAME
 0002:00001F27       VMM_SYMS
 0003:00000000       MSG_RMI
 0003:00000074       MSG_DUP_DEVICE
 0003:0000009E       MSG_NOINSTALL
 0003:000000CC       MSG_NO_SWAT
 0003:000000E5       MSG_NO_INFO
 0003:000000FE       MSG_XMS_VER
 0003:00000113       MSG_XMS_VER_X1
 0003:00000115       MSG_XMS_VER_X2
 0003:00000122       MSG_XMS_VER_X3
 0003:0000012A       MSG_IDTR
 0003:00000143       MSG_IDTR_BASE
 0003:0000014D       MSG_IDTR_LIM
 0003:00000155       MSG_MAXVER
 0003:00000168       MSG_MAXVER_X
 0003:0000016F       MSG_NOMAX
 0003:0000018A       MSG_MAXOFF
 0003:0000019E       MSG_PAK
 0003:000001D2       MSG_PAKORESC
 0003:000001FD       MSG_CRLF
 0003:00000200       MSG_IMPORT_OPEN
 0003:0000022F       MSG_IMPORT_NOTCHR
 0003:00000251       MSG_IMPORT_IOCTL1
 0003:00000282       MSG_IMPORT_IOCTL2
 0003:000002A8       MSG_IMPORT_IOCTL3
 0003:000002CE       MSG_IMPORT_NULL
 0003:000002F8       MSG_IMPORT_INFO
 0003:00000315       MSG_IMPORT_INFO0
 0003:00000317       MSG_IMPORT_INFO1
 0003:0000031D       MSG_IMPORT_INFO2
 0003:00000333       MSG_SYMB_INFO
 0003:00000333       MSG_SYMB_INFO1
 0003:00000353       MSG_SYMB_INFO2
 0003:000003A3       MSG_SYMB_NONE
 0003:000003BE       RMI_FLAG
 0003:000003C0       LOADER_FLAGS
 0003:000003C2       LOADER_SVC
 0003:000003C6       RMI_REFDATA
 0003:000003CA       VMM_VERSION
 0003:000003CC       ENVIR_SEG
 0003:000003E8       DEVNAME
 0003:000003F1       EMMNAME
 0003:000003FA       szSWATVXD$
 0003:00000403       DEV_HNDL
 0003:00000405       SWATINFO
 0003:00000409       XMS
 0003:0000040D       RM_IDTR
 0003:00000413       INFO_CTL
 0003:00000414       INFO
 0003:0000047A       PAGING_IMPORT
 0003:00000510       LSSF_BUF
 0003:0000151F       LSSF_BUFP
 0003:00001521       LSSF_FH
 0003:00001525       LSSF_CNT
 0003:00001527       LSSF_SYMCNT
 0003:0000152F       LSSF_SYMSUB
 0003:00001531       LSSF_XLAT
 0003:0000160E       RMI_PAUSE

Program entry point at 0003:1533
