
 Start  Stop   Length Name                   Class
 00000H 0269DH 0269EH MAPSSF_TEXT            CODE
 0269EH 02FADH 00910H LOADSYM_TEXT           CODE
 02FAEH 041F4H 01247H LOADMAP_TEXT           CODE
 041F6H 043F4H 001FFH GETOPT_TEXT            CODE
 043F6H 04439H 00044H SWAT_API_TEXT          CODE
 0443AH 074C2H 03089H _TEXT                  CODE
 074D0H 074D1H 00002H EMULATOR_TEXT          CODE
 074D2H 074D2H 00000H C_ETEXT                ENDCODE
 074D2H 0756CH 0009BH NCODE                  PROG
 07570H 0758FH 00020H NDATA                  PROG
 07590H 07590H 00000H EMULATOR_DATA          FAR_DATA
 07590H 075D1H 00042H NULL                   BEGDATA
 075D2H 08E45H 01874H _DATA                  DATA
 08E46H 08E47H 00002H XIQC                   DATA
 08E48H 08E53H 0000CH DBDATA                 DATA
 08E54H 08E61H 0000EH CDATA                  DATA
 08E62H 08E62H 00000H XIFB                   DATA
 08E62H 08E62H 00000H XIF                    DATA
 08E62H 08E62H 00000H XIFE                   DATA
 08E62H 08E62H 00000H XIB                    DATA
 08E62H 08E62H 00000H XI                     DATA
 08E62H 08E62H 00000H XIE                    DATA
 08E62H 08E62H 00000H XPB                    DATA
 08E62H 08E65H 00004H XP                     DATA
 08E66H 08E66H 00000H XPE                    DATA
 08E66H 08E66H 00000H XCB                    DATA
 08E66H 08E66H 00000H XC                     DATA
 08E66H 08E66H 00000H XCE                    DATA
 08E66H 08E66H 00000H XCFB                   DATA
 08E66H 08E66H 00000H XCFCRT                 DATA
 08E66H 08E66H 00000H XCF                    DATA
 08E66H 08E66H 00000H XCFE                   DATA
 08E66H 08E66H 00000H XIFCB                  DATA
 08E66H 08E66H 00000H XIFU                   DATA
 08E66H 08E66H 00000H XIFL                   DATA
 08E66H 08E66H 00000H XIFM                   DATA
 08E66H 08E66H 00000H XIFCE                  DATA
 08E66H 08E69H 00004H CONST                  CONST
 08E6AH 08E71H 00008H HDR                    MSG
 08E72H 08F47H 000D6H MSG                    MSG
 08F48H 08F49H 00002H PAD                    MSG
 08F4AH 08F4AH 00001H EPAD                   MSG
 08F4CH 090C1H 00176H _BSS                   BSS
 090C2H 090C2H 00000H XOB                    BSS
 090C2H 090C2H 00000H XO                     BSS
 090C2H 090C2H 00000H XOE                    BSS
 090C2H 090C2H 00000H XOFB                   BSS
 090C2H 090C2H 00000H XOF                    BSS
 090C2H 090C2H 00000H XOFE                   BSS
 090D0H 09CA9H 00BDAH c_common               BSS
 09CB0H 0A4AFH 00800H STACK                  STACK

 Origin   Group
 074D:0   PGROUP
 0759:0   DGROUP

  Address         Publics by Name

 074D:0003       CPUTYPE
 074D:0002       LCL_INT67
 074D:00A4       MAXNAME
 074D:0018       OPEN_DEV
 074D:00B2       SWATNAME
 0000:009E       _add_ssf
 0759:0046       _append
 0443:243E       _atoi
 0759:00A6       _binext
 0759:1B40       _buffer
 0759:0054       _byname
 0443:2734       _calloc
 0759:22E2       _cbSegName
 02FA:019E       _CheckSel
 0000:059C       _check_wsg
 0000:0AF6       _clear_wsg
 0759:0042       _debuglvl
 0759:0050       _defaultmode
 0759:008A       _defext
 0759:004A       _defsegsel
 0759:229A       _dir
 0759:2404       _drive
 0759:1C40       _dwSelBase
 0759:19BC       _edata
 0759:2720       _end
 0000:0000       _err
 0759:12E8       _errno
 0443:01F5       _exit
 0000:1586       _expand_fspec
 0759:2194       _ext
 0443:0640       _fclose
 0443:0C08       _fflush
 0443:24DA       _fgets
 0443:0742       _fopen
 0759:004C       _forcesym
 0443:075E       _fprintf
 0443:1C14       _fputc
 041F:0006       _getopt
 0000:0CE0       _get_wsg
 0759:0044       _groupfilt
 0759:004E       _ignlines
 0759:25D9       _linesym
 02FA:02B6       _load_map
 0269:000E       _load_sym
 0759:0F2C       _ltok
 0000:1BF0       _main
 0759:0058       _map32
 0759:2092       _mdir
 0759:23FE       _mdrive
 0443:2A1A       _memcpy
 0443:2A78       _memset
 0759:219A       _mext
 0759:261A       _mname
 0759:22E4       _modname
 0759:25D0       _name
 0759:0056       _offwrap
 0759:22DC       _optarg
 0759:125A       _optind
 0759:22E0       _optopt
 0759:2040       _path
 0443:079E       _printf
 0443:1C14       _putc
 0443:1C0C       _putchar
 0759:0048       _rawappend
 0000:01BA       _rec2bytes
 0443:3084       _remove
 0000:021A       _reset_ssf
 0000:09CC       _resolve_wsg
 0000:04E6       _rstruct_alloc
 0000:054A       _rstruct_free
 0000:04BC       _rstruct_init
 0759:0052       _segmentmode
 02FA:000E       _segoff2dd
 02FA:00A6       _segoff2off
 02FA:0070       _segoff2seg
 0443:2554       _setvbuf
 0000:0BA2       _sort_wsg
 02FA:00DE       _splitsegoff
 0443:2624       _sprintf
 0443:268E       _sscanf
 0759:0060       _ssf
 0759:0078       _ssfadded
 0759:006A       _SSFcnt
 0759:007C       _ssfdeficit
 0759:0074       _ssfrecadded
 0759:0064       _SSFtail
 0759:0070       _ssftotal
 0759:0068       _SSFx
 0759:00B6       _ssf_hdr
 0759:132E       _STKHQQ
 0443:2308       _strcat
 0443:27F0       _strchr
 0443:2398       _strcmp
 0443:235C       _strcpy
 0443:2B24       _strerror
 0443:23C2       _strlen
 0443:23DC       _strncat
 0443:2414       _strncpy
 0443:2950       _strpbrk
 0443:28F8       _strrchr
 0443:29AE       _strstr
 043F:0006       _SWAT_ADDSYM
 043F:003C       _SWAT_FLUSHTAB
 074D:003E       _SWAT_PRESENT
 0759:22F4       _szSegName
 0759:005E       _tableleft
 0759:005C       _tablesize
 0000:13D8       _time_str
 0759:2408       _tok1
 0759:246A       _tok2
 0759:2429       _tok3
 0759:24CC       _tok4
 0759:24AB       _tok5
 0759:258E       _tok6
 0759:256D       _tok7
 0759:25AF       _tok8
 0443:1C3C       _ungetc
 02FA:0240       _UpdateSelBase
 0759:2402       _wDefGroup
 0759:005A       _win32
 0759:006C       _wsg
 0759:2192       _wsgcount
 0759:132A       __aaltstkovr
 0443:2D22       __access
 0759:12CC       __acfinfo
 0000:9876  Abs  __acrtmsg
 0000:9876  Abs  __acrtused
 0000:D6D6  Abs  __aDBdoswp
 0759:1326       __adbgmsg
 0759:12AE       __aexit_rtn
 0443:02D0       __aFchkstk
 0443:2D90       __aFFalmul
 0443:2D90       __aFFaulmul
 0443:2DB2       __aFldiv
 0443:2E4C       __aFlmul
 0443:2E7E       __aFlrem
 0443:2F1E       __aFlshl
 0443:2E4C       __aFulmul
 0000:1000  Abs  __AHINCR
 0000:000C  Abs  __AHSHIFT
 0759:12DA       __aintdiv
 0759:15AE       __amblksiz
 0443:00FE       __amsg_exit
 0759:0042       __anullsize
 0759:12C6       __aseghi
 0759:12C8       __aseglo
 0759:12B0       __asizds
 0759:15D0       __asizeC
 0759:15D1       __asizeD
 0443:001A       __astart
 0759:12AC       __atopsp
 0443:2442       __catox
 0443:0204       __cexit
 0759:15B0       __cfltcvt_tab
 0759:134C       __cflush
 0759:131D       __child
 0443:02D0       __chkstk
 0443:012C       __cinit
 0443:00EF       __cintDIV
 0443:1CAC       __close
 0443:2AC0       __cltoasub
 0443:26DA       __commit
 0759:15AA       __commode
 0759:12F5       __cpumode
 0443:027C       __ctermsub
 0759:15D2       __ctype
 0759:15D2       __ctype_
 0443:1F09       __cXENIXtoDOSmode
 0443:2ACD       __cxtoa
 0443:020E       __c_exit
 0443:012A       __dataseg
 0759:12F6       __doserrno
 0443:05E8       __dosret0
 0443:05FD       __dosretax
 0443:05F0       __dosreturn
 0443:2D44       __dos_commit
 0443:2D5D       __dos_findfirst
 0443:2D52       __dos_findnext
 0759:19BC       __edata
 074D:0000       __EmDataSeg
 0759:2720       __end
 0443:07E2       __endstdio
 0759:1314       __environ
 0443:01FC       __exit
 0759:1325       __exitflag
 0759:12DE       __fac
 0443:063E       __farstub
 0443:24B4       __fcloseall
 0759:12CA       __fDosExt
 0443:2F2A       __ffree
 0443:02A8       __FF_MSGBANNER
 0759:16D8       __fheap
 0443:07F8       __filbuf
 0443:22E8       __findlast
 0443:0894       __flsbuf
 0443:0C60       __flush
 0443:0CE0       __flushall
 0443:2F3D       __fmalloc
 0759:15A8       __fmode
 0759:18C6       __fpinit
 0443:02CA       __fptrap
 0443:1C0C       __fputchar
 0443:0980       __freebuf
 0443:070E       __fsopen
 0443:0BC1       __ftbuf
 0443:09B8       __getbuf
 0443:1BBE       __getstream
 0443:27DA       __growscan
 0443:2208       __growseg
 0443:2297       __incseg
 0443:2FD6       __initseg
 0443:0D54       __input
 0759:1320       __intno
 0759:134E       __iob
 0759:143E       __iob2
 0759:15A8       __iomode
 0443:2498       __itoa
 0759:152E       __lastiob
 0443:300A       __linkseg
 0443:1CCC       __lseek
 0759:15AC       __lseekchk
 0443:060A       __maperror
 0443:2762       __memmax
 0443:05C2       __myalloc
 0443:3040       __newseg
 0759:12F8       __nfile
 0759:12B2       __nheap_desc
 0443:2762       __nmemmax
 0443:0560       __NMSG_TEXT
 0443:058B       __NMSG_WRITE
 0443:02F4       __nullcheck
 0443:1D68       __open
 0443:0A04       __openfile
 0759:12F6       __oserr
 0759:12FA       __osfile
 0759:12F1       __osmajor
 0759:12F0       __osminor
 0759:12F4       __osmode
 0759:12F0       __osver
 0759:12F2       __osversion
 0443:16D4       __output
 0759:131F       __ovlflag
 0759:1321       __ovlvec
 0759:1318       __pgmptr
 0759:16D4       __pnhFarHeap
 0759:12EE       __psp
 0759:12EC       __pspadr
 0443:1F1A       __read
 0443:2790       __scanseg
 0443:218C       __searchseg
 0443:0318       __setargv
 0443:04C0       __setenvp
 0759:15CE       __sigintoff
 0759:15CC       __sigintseg
 0443:1D4E       __sopen
 0443:2B66       __splitpath
 0443:2178       __stackavail
 0443:0B40       __stbuf
 0443:2822       __strcmpi
 0443:2868       __strdup
 0443:2822       __stricmp
 0443:292C       __strlwr
 0443:28A0       __strnicmp
 0759:181C       __sys_errlist
 0759:18B4       __sys_nerr
 0759:12EA       __umaskval
 0443:3084       __unlink
 0443:2018       __write
 0759:18BE       ___aDBexit
 0759:18BC       ___aDBrterr
 0759:18BA       ___aDBswpchk
 0759:18B8       ___aDBswpflg
 0759:130E       ___argc
 0759:1310       ___argv
 0759:18B6       ___qczrinit

  Address         Publics by Value

 0000:0000       _err
 0000:000C  Abs  __AHSHIFT
 0000:009E       _add_ssf
 0000:01BA       _rec2bytes
 0000:021A       _reset_ssf
 0000:04BC       _rstruct_init
 0000:04E6       _rstruct_alloc
 0000:054A       _rstruct_free
 0000:059C       _check_wsg
 0000:09CC       _resolve_wsg
 0000:0AF6       _clear_wsg
 0000:0BA2       _sort_wsg
 0000:0CE0       _get_wsg
 0000:1000  Abs  __AHINCR
 0000:13D8       _time_str
 0000:1586       _expand_fspec
 0000:1BF0       _main
 0269:000E       _load_sym
 02FA:000E       _segoff2dd
 02FA:0070       _segoff2seg
 02FA:00A6       _segoff2off
 02FA:00DE       _splitsegoff
 02FA:019E       _CheckSel
 02FA:0240       _UpdateSelBase
 02FA:02B6       _load_map
 041F:0006       _getopt
 043F:0006       _SWAT_ADDSYM
 043F:003C       _SWAT_FLUSHTAB
 0443:001A       __astart
 0443:00EF       __cintDIV
 0443:00FE       __amsg_exit
 0443:012A       __dataseg
 0443:012C       __cinit
 0443:01F5       _exit
 0443:01FC       __exit
 0443:0204       __cexit
 0443:020E       __c_exit
 0443:027C       __ctermsub
 0443:02A8       __FF_MSGBANNER
 0443:02CA       __fptrap
 0443:02D0       __aFchkstk
 0443:02D0       __chkstk
 0443:02F4       __nullcheck
 0443:0318       __setargv
 0443:04C0       __setenvp
 0443:0560       __NMSG_TEXT
 0443:058B       __NMSG_WRITE
 0443:05C2       __myalloc
 0443:05E8       __dosret0
 0443:05F0       __dosreturn
 0443:05FD       __dosretax
 0443:060A       __maperror
 0443:063E       __farstub
 0443:0640       _fclose
 0443:070E       __fsopen
 0443:0742       _fopen
 0443:075E       _fprintf
 0443:079E       _printf
 0443:07E2       __endstdio
 0443:07F8       __filbuf
 0443:0894       __flsbuf
 0443:0980       __freebuf
 0443:09B8       __getbuf
 0443:0A04       __openfile
 0443:0B40       __stbuf
 0443:0BC1       __ftbuf
 0443:0C08       _fflush
 0443:0C60       __flush
 0443:0CE0       __flushall
 0443:0D54       __input
 0443:16D4       __output
 0443:1BBE       __getstream
 0443:1C0C       __fputchar
 0443:1C0C       _putchar
 0443:1C14       _fputc
 0443:1C14       _putc
 0443:1C3C       _ungetc
 0443:1CAC       __close
 0443:1CCC       __lseek
 0443:1D4E       __sopen
 0443:1D68       __open
 0443:1F09       __cXENIXtoDOSmode
 0443:1F1A       __read
 0443:2018       __write
 0443:2178       __stackavail
 0443:218C       __searchseg
 0443:2208       __growseg
 0443:2297       __incseg
 0443:22E8       __findlast
 0443:2308       _strcat
 0443:235C       _strcpy
 0443:2398       _strcmp
 0443:23C2       _strlen
 0443:23DC       _strncat
 0443:2414       _strncpy
 0443:243E       _atoi
 0443:2442       __catox
 0443:2498       __itoa
 0443:24B4       __fcloseall
 0443:24DA       _fgets
 0443:2554       _setvbuf
 0443:2624       _sprintf
 0443:268E       _sscanf
 0443:26DA       __commit
 0443:2734       _calloc
 0443:2762       __memmax
 0443:2762       __nmemmax
 0443:2790       __scanseg
 0443:27DA       __growscan
 0443:27F0       _strchr
 0443:2822       __stricmp
 0443:2822       __strcmpi
 0443:2868       __strdup
 0443:28A0       __strnicmp
 0443:28F8       _strrchr
 0443:292C       __strlwr
 0443:2950       _strpbrk
 0443:29AE       _strstr
 0443:2A1A       _memcpy
 0443:2A78       _memset
 0443:2AC0       __cltoasub
 0443:2ACD       __cxtoa
 0443:2B24       _strerror
 0443:2B66       __splitpath
 0443:2D22       __access
 0443:2D44       __dos_commit
 0443:2D52       __dos_findnext
 0443:2D5D       __dos_findfirst
 0443:2D90       __aFFalmul
 0443:2D90       __aFFaulmul
 0443:2DB2       __aFldiv
 0443:2E4C       __aFlmul
 0443:2E4C       __aFulmul
 0443:2E7E       __aFlrem
 0443:2F1E       __aFlshl
 0443:2F2A       __ffree
 0443:2F3D       __fmalloc
 0443:2FD6       __initseg
 0443:300A       __linkseg
 0443:3040       __newseg
 0443:3084       _remove
 0443:3084       __unlink
 074D:0000       __EmDataSeg
 074D:0002       LCL_INT67
 074D:0003       CPUTYPE
 074D:0018       OPEN_DEV
 074D:003E       _SWAT_PRESENT
 074D:00A4       MAXNAME
 074D:00B2       SWATNAME
 0759:0042       _debuglvl
 0759:0042       __anullsize
 0759:0044       _groupfilt
 0759:0046       _append
 0759:0048       _rawappend
 0759:004A       _defsegsel
 0759:004C       _forcesym
 0759:004E       _ignlines
 0759:0050       _defaultmode
 0759:0052       _segmentmode
 0759:0054       _byname
 0759:0056       _offwrap
 0759:0058       _map32
 0759:005A       _win32
 0759:005C       _tablesize
 0759:005E       _tableleft
 0759:0060       _ssf
 0759:0064       _SSFtail
 0759:0068       _SSFx
 0759:006A       _SSFcnt
 0759:006C       _wsg
 0759:0070       _ssftotal
 0759:0074       _ssfrecadded
 0759:0078       _ssfadded
 0759:007C       _ssfdeficit
 0759:008A       _defext
 0759:00A6       _binext
 0759:00B6       _ssf_hdr
 0759:0F2C       _ltok
 0759:125A       _optind
 0759:12AC       __atopsp
 0759:12AE       __aexit_rtn
 0759:12B0       __asizds
 0759:12B2       __nheap_desc
 0759:12C6       __aseghi
 0759:12C8       __aseglo
 0759:12CA       __fDosExt
 0759:12CC       __acfinfo
 0759:12DA       __aintdiv
 0759:12DE       __fac
 0759:12E8       _errno
 0759:12EA       __umaskval
 0759:12EC       __pspadr
 0759:12EE       __psp
 0759:12F0       __osminor
 0759:12F0       __osver
 0759:12F1       __osmajor
 0759:12F2       __osversion
 0759:12F4       __osmode
 0759:12F5       __cpumode
 0759:12F6       __oserr
 0759:12F6       __doserrno
 0759:12F8       __nfile
 0759:12FA       __osfile
 0759:130E       ___argc
 0759:1310       ___argv
 0759:1314       __environ
 0759:1318       __pgmptr
 0759:131D       __child
 0759:131F       __ovlflag
 0759:1320       __intno
 0759:1321       __ovlvec
 0759:1325       __exitflag
 0759:1326       __adbgmsg
 0759:132A       __aaltstkovr
 0759:132E       _STKHQQ
 0759:134C       __cflush
 0759:134E       __iob
 0759:143E       __iob2
 0759:152E       __lastiob
 0759:15A8       __fmode
 0759:15A8       __iomode
 0759:15AA       __commode
 0759:15AC       __lseekchk
 0759:15AE       __amblksiz
 0759:15B0       __cfltcvt_tab
 0759:15CC       __sigintseg
 0759:15CE       __sigintoff
 0759:15D0       __asizeC
 0759:15D1       __asizeD
 0759:15D2       __ctype_
 0759:15D2       __ctype
 0759:16D4       __pnhFarHeap
 0759:16D8       __fheap
 0759:181C       __sys_errlist
 0759:18B4       __sys_nerr
 0759:18B6       ___qczrinit
 0759:18B8       ___aDBswpflg
 0759:18BA       ___aDBswpchk
 0759:18BC       ___aDBrterr
 0759:18BE       ___aDBexit
 0759:18C6       __fpinit
 0759:19BC       _edata
 0759:19BC       __edata
 0759:1B40       _buffer
 0759:1C40       _dwSelBase
 0759:2040       _path
 0759:2092       _mdir
 0759:2192       _wsgcount
 0759:2194       _ext
 0759:219A       _mext
 0759:229A       _dir
 0759:22DC       _optarg
 0759:22E0       _optopt
 0759:22E2       _cbSegName
 0759:22E4       _modname
 0000:9876  Abs  __acrtused
 0000:9876  Abs  __acrtmsg
 0759:22F4       _szSegName
 0759:23FE       _mdrive
 0759:2402       _wDefGroup
 0759:2404       _drive
 0759:2408       _tok1
 0759:2429       _tok3
 0759:246A       _tok2
 0759:24AB       _tok5
 0759:24CC       _tok4
 0759:256D       _tok7
 0759:258E       _tok6
 0759:25AF       _tok8
 0759:25D0       _name
 0759:25D9       _linesym
 0759:261A       _mname
 0759:2720       _end
 0759:2720       __end
 0000:D6D6  Abs  __aDBdoswp

Line numbers for ret\mapssf.obj(mapssf.c) segment MAPSSF_TEXT

   131 0000:0000   132 0000:000d   133 0000:0016   134 0000:0032
   157 0000:0048   158 0000:004b   159 0000:0067   160 0000:007b
   161 0000:008b   162 0000:0097     0 0000:009c   174 0000:009e
   179 0000:00ab   183 0000:00c2   184 0000:00cd   187 0000:00d2
   188 0000:00dd   189 0000:00f3   190 0000:011d   191 0000:0122
   195 0000:0135   196 0000:0146   197 0000:0151   198 0000:015c
   199 0000:0167   200 0000:0172   203 0000:0192   204 0000:01a7
   205 0000:01ae   207 0000:01b3     0 0000:01b8   212 0000:01ba
   216 0000:01c7   218 0000:01d4   219 0000:01ed   220 0000:01fe
   222 0000:020b   224 0000:0214     0 0000:0219   229 0000:021a
   233 0000:0227   236 0000:0237   238 0000:0243   239 0000:024d
   240 0000:0275   241 0000:0283   243 0000:029f   246 0000:02a2
   247 0000:02c2   249 0000:02fc   250 0000:0302   251 0000:0320
   252 0000:033d   253 0000:0357   254 0000:0365   255 0000:0373
   257 0000:03ad   260 0000:03b3   263 0000:03df   265 0000:0424
   267 0000:044f   268 0000:0452   269 0000:0465   270 0000:0468
   271 0000:047b   272 0000:047e   276 0000:049c   281 0000:04a2
   282 0000:04b0   284 0000:04b6     0 0000:04bb   289 0000:04bc
   290 0000:04c9   291 0000:04d7   292 0000:04e0     0 0000:04e5
   298 0000:04e6   299 0000:04f3   300 0000:0519   301 0000:051f
   302 0000:0528   303 0000:053d   304 0000:0543     0 0000:0548
   309 0000:054a   310 0000:0557   311 0000:057a   312 0000:058c
   313 0000:0595     0 0000:059a   319 0000:059c   324 0000:05a9
   327 0000:05b3   328 0000:05bc   333 0000:05c6   334 0000:05d0
   338 0000:05d6   348 0000:05f8   350 0000:0600   364 0000:0608
   366 0000:0790   367 0000:07ca   368 0000:07f0   371 0000:0830
   375 0000:084c   378 0000:0866   379 0000:086f   380 0000:0877
   383 0000:087a   384 0000:0883   385 0000:088c   388 0000:088f
   389 0000:0898   391 0000:089b   395 0000:08b9   396 0000:08ea
   397 0000:092f   398 0000:0941   400 0000:0969   401 0000:096c
   404 0000:099d   408 0000:09a3   410 0000:09c6     0 0000:09cb
   418 0000:09cc   421 0000:09d9   423 0000:09e1   425 0000:09ea
   426 0000:0a1b   432 0000:0a3b   434 0000:0a3e   435 0000:0a98
   436 0000:0ab8   437 0000:0ad8   440 0000:0adb   442 0000:0aeb
   444 0000:0af0     0 0000:0af5   449 0000:0af6   452 0000:0b03
   454 0000:0b0b   456 0000:0b31   457 0000:0b4f   458 0000:0b6d
   462 0000:0b8b     0 0000:0ba0   469 0000:0ba2   473 0000:0baf
   475 0000:0bb7   477 0000:0bbc   479 0000:0bc4   481 0000:0c1a
   482 0000:0c42   483 0000:0c8d   484 0000:0cbb   488 0000:0cc0
   490 0000:0cd0   492 0000:0cd9     0 0000:0cde   498 0000:0ce0
   511 0000:0ced   512 0000:0d17   513 0000:0d2c   514 0000:0d4f
   516 0000:0d65   517 0000:0d83   520 0000:0d89   522 0000:0d8e
   523 0000:0de2   524 0000:0de5   525 0000:0dfc   526 0000:0dff
   527 0000:0e04   528 0000:0e2f   529 0000:0e32   530 0000:0e37
   531 0000:0e54   534 0000:0e57   537 0000:0e68   538 0000:0ec1
   539 0000:0ee8   540 0000:0ef7   541 0000:0f0f   542 0000:0f12
   543 0000:0f19   546 0000:0f1c   547 0000:0f30   548 0000:0f40
   552 0000:0f4c   553 0000:0f51   554 0000:0f78   557 0000:0f7b
   565 0000:0f86   568 0000:0fea   569 0000:1020   572 0000:1027
   573 0000:104f   574 0000:1060   575 0000:1063   576 0000:1068
   577 0000:1071   578 0000:1076   579 0000:108f   582 0000:1097
   583 0000:10a2   584 0000:10a6   585 0000:10ad   586 0000:10de
   588 0000:10e2   591 0000:1109   593 0000:1163   594 0000:1180
   595 0000:1199   596 0000:11b3   597 0000:11cd   598 0000:11f7
   600 0000:1233   602 0000:1272   603 0000:128a   604 0000:129c
   605 0000:12aa   606 0000:12b2   608 0000:12e9   609 0000:12ec
   613 0000:130d   615 0000:1337   618 0000:133c   619 0000:133f
   622 0000:136c   624 0000:136f   627 0000:1372   628 0000:137c
   629 0000:1381   631 0000:13ab   632 0000:13ae   635 0000:13b3
   638 0000:13c1   639 0000:13cc   641 0000:13d2     0 0000:13d7
   647 0000:13d8   651 0000:13e5   652 0000:13fe   654 0000:1417
   655 0000:1430   657 0000:1449   659 0000:1462   661 0000:147b
   663 0000:1486   665 0000:14b3   666 0000:14cf   668 0000:14e4
   669 0000:14f6   670 0000:1507   671 0000:1519   672 0000:152a
   673 0000:153f   674 0000:1551   675 0000:1562   680 0000:1577
   682 0000:1580     0 0000:1585   687 0000:1586   688 0000:1593
   696 0000:159d   697 0000:15c7   698 0000:15dc   699 0000:1628
   700 0000:165a   701 0000:1688   702 0000:16a3   708 0000:16b8
   709 0000:16e3   712 0000:1707   713 0000:1725   716 0000:1729
   717 0000:1747   720 0000:174b   724 0000:1767   725 0000:178e
   726 0000:179c   729 0000:17a3   730 0000:17c8   731 0000:17f3
   734 0000:17f6   738 0000:17fb   739 0000:1810   741 0000:181f
   742 0000:1824   743 0000:182d   744 0000:1831   746 0000:1834
   747 0000:1891   749 0000:1895   752 0000:18d4   754 0000:18ea
   757 0000:1903   758 0000:194b   759 0000:1967   761 0000:196c
   762 0000:1989   763 0000:19c4   765 0000:19ee   767 0000:1a09
   768 0000:1a2b   771 0000:1a59   772 0000:1a5c   773 0000:1a8a
   775 0000:1ab0   778 0000:1ad6   779 0000:1afd   781 0000:1b2b
   786 0000:1b7a   787 0000:1b7d   789 0000:1ba8   790 0000:1bb1
   791 0000:1bc0   792 0000:1bc3   794 0000:1bd2   796 0000:1be9
     0 0000:1bee   800 0000:1bf0   804 0000:1bfd   807 0000:1c13
   808 0000:1c40   810 0000:1c53   812 0000:1c77   816 0000:1c7d
   817 0000:1c83   818 0000:1c89   819 0000:1c8f   823 0000:1c92
   824 0000:1c97   825 0000:1c9d   829 0000:1ca0   830 0000:1cb3
   834 0000:1cb6   836 0000:1cc1   837 0000:1ce5   838 0000:1cf8
   839 0000:1cfb   841 0000:1d20   842 0000:1d2e   843 0000:1d3c
   844 0000:1d3f   846 0000:1d4b   852 0000:1d4e   853 0000:1d61
   857 0000:1d64   858 0000:1d69   862 0000:1d6c   863 0000:1d72
   864 0000:1d78   868 0000:1d7b   869 0000:1d81   874 0000:1d84
   875 0000:1d88   876 0000:1db4   878 0000:1dde   879 0000:1e02
   880 0000:1e15   881 0000:1e18   882 0000:1e30   883 0000:1e43
   884 0000:1e46   885 0000:1e5e   886 0000:1e6a   887 0000:1e70
   888 0000:1e73   891 0000:1e79   895 0000:1e7c   896 0000:1e93
   898 0000:1ebe   899 0000:1ed5   901 0000:1eeb   902 0000:1f0d
   903 0000:1f20   904 0000:1f23   905 0000:1f42   907 0000:1f55
   911 0000:1f58   912 0000:1f5e   913 0000:1f91   914 0000:1f97
   918 0000:1fd6   919 0000:1ff5   921 0000:1ff8   925 0000:1ffb
   927 0000:2027   930 0000:203a   933 0000:203d   936 0000:2050
   939 0000:2063   942 0000:2076   944 0000:2089   945 0000:20af
   949 0000:20b2   950 0000:20c5   954 0000:20c8   955 0000:20cd
   959 0000:20d0   960 0000:20e9   963 0000:20ec   965 0000:216d
   966 0000:2195   968 0000:21c8   970 0000:2205   972 0000:2246
   974 0000:2283   977 0000:22c0   978 0000:22cc   980 0000:22df
   981 0000:22f6   986 0000:2309   987 0000:231d   988 0000:2345
   989 0000:2352   993 0000:2365   995 0000:236e   999 0000:2414
  1001 0000:2437  1003 0000:2446  1005 0000:2455  1007 0000:2473
  1009 0000:2476  1015 0000:2489  1016 0000:24b3  1017 0000:24c9
  1019 0000:24dc  1021 0000:24df  1022 0000:251b  1024 0000:253b
  1027 0000:254a  1030 0000:254f  1033 0000:255f  1036 0000:256f
  1037 0000:2579  1038 0000:25a1  1039 0000:25b4  1040 0000:25c2
  1041 0000:25e1  1042 0000:25f4  1044 0000:2600  1045 0000:2603
  1050 0000:2652  1051 0000:2666  1055 0000:2692  1057 0000:2698
     0 0000:269d

Line numbers for ret\loadsym.obj(loadsym.c) segment LOADSYM_TEXT

    23 0269:000e    42 0269:001b    43 0269:0029    45 0269:0032
    47 0269:004f    49 0269:005e    50 0269:0069    51 0269:0096
    52 0269:0099    53 0269:00c0    55 0269:00c3    56 0269:00ce
    57 0269:00f9    59 0269:00fc    61 0269:0107    62 0269:0123
    64 0269:0126    65 0269:0144    66 0269:0156    68 0269:0184
    69 0269:018f    70 0269:01a6    72 0269:01a9    74 0269:01b4
    76 0269:01c6    77 0269:01cf    80 0269:01f5    81 0269:021c
    83 0269:021f    85 0269:022b    86 0269:0239    87 0269:0260
    88 0269:026b    89 0269:0274    90 0269:0277    91 0269:0282
    92 0269:028c    93 0269:028f    94 0269:029a    95 0269:02ba
    96 0269:02bd    99 0269:02ce   100 0269:02d9   103 0269:02df
   104 0269:030f   105 0269:0323   106 0269:034b   107 0269:0361
   114 0269:0393   116 0269:03b9   121 0269:03bc   122 0269:03eb
   126 0269:03ee   127 0269:0405   129 0269:0411   132 0269:0416
   133 0269:0421   134 0269:043e   135 0269:0441   138 0269:0452
   139 0269:045d   144 0269:0469   145 0269:04b6   149 0269:04b9
   151 0269:04ed   152 0269:0515   153 0269:052b   155 0269:0560
   158 0269:0569   159 0269:056f   160 0269:0574   163 0269:0579
   165 0269:05a2   169 0269:05cf   170 0269:05ef   171 0269:060a
   172 0269:060f   174 0269:061e   176 0269:0647   177 0269:0652
   178 0269:065b   179 0269:065e   180 0269:0669   181 0269:0673
   182 0269:0676   184 0269:0681   185 0269:06ab   186 0269:06ae
   189 0269:06bf   190 0269:06ca   193 0269:06d4   194 0269:0708
   195 0269:071c   196 0269:0744   197 0269:075a   198 0269:0785
   205 0269:07c7   207 0269:07ea   214 0269:07ed   215 0269:0822
   217 0269:082e   218 0269:083a   219 0269:0845   220 0269:086a
   222 0269:086d   223 0269:0870   226 0269:0875   229 0269:087e
   231 0269:08b7   234 0269:08ba   237 0269:08dc   238 0269:08eb
   241 0269:08f6   242 0269:08f9   244 0269:0915   246 0269:0918
     0 0269:091d

Line numbers for ret\loadmap.obj(loadmap.c) segment LOADMAP_TEXT

    61 02fa:000e    64 02fa:001b    66 02fa:003e    68 02fa:0069
     0 02fa:006e    73 02fa:0070    76 02fa:007d    78 02fa:0099
    80 02fa:009f     0 02fa:00a4    85 02fa:00a6    88 02fa:00b3
    90 02fa:00cf    92 02fa:00d8     0 02fa:00dd    97 02fa:00de
   102 02fa:00eb   103 02fa:0103   105 02fa:0118   107 02fa:0122
   109 02fa:0132   110 02fa:0153   112 02fa:015d   113 02fa:0160
   115 02fa:016c   116 02fa:0176   120 02fa:0187   122 02fa:0198
     0 02fa:019d   129 02fa:019e   131 02fa:01ab   132 02fa:01c6
   135 02fa:01c9   136 02fa:01dd   139 02fa:01e0   142 02fa:01ec
   149 02fa:020d   151 02fa:0239     0 02fa:023e   155 02fa:0240
   160 02fa:024d   162 02fa:027b   164 02fa:0291   168 02fa:02af
     0 02fa:02b4   173 02fa:02b6   175 02fa:02c3   176 02fa:02cd
   177 02fa:02d2   189 02fa:02d7   191 02fa:02dc   194 02fa:0307
   195 02fa:031e   196 02fa:0348   197 02fa:0365   199 02fa:0377
   200 02fa:037f   201 02fa:0389   202 02fa:038e   206 02fa:03b6
   209 02fa:03f2   210 02fa:03fc   211 02fa:0426   212 02fa:042d
   213 02fa:0457   214 02fa:045e   216 02fa:048a   217 02fa:0494
   218 02fa:049a   219 02fa:04a0   220 02fa:04aa   222 02fa:04af
   223 02fa:04d9   226 02fa:04e0   228 02fa:04fc   232 02fa:054b
   233 02fa:05c3   234 02fa:05c8   236 02fa:05ce   239 02fa:05d1
   240 02fa:062b   241 02fa:0630   243 02fa:0636   245 02fa:0639
   246 02fa:0675   247 02fa:067a   251 02fa:067d   252 02fa:06f5
   253 02fa:06fa   257 02fa:06fd   258 02fa:0775   259 02fa:077a
   262 02fa:077d   263 02fa:07d7   265 02fa:07dc   266 02fa:0805
   267 02fa:080c   268 02fa:0835   269 02fa:0843   270 02fa:086e
   271 02fa:0880   272 02fa:08aa   273 02fa:08cd   274 02fa:08d7
   275 02fa:08e2   280 02fa:08ee   284 02fa:08f1   285 02fa:0969
   288 02fa:096e   291 02fa:0971   293 02fa:09d5   294 02fa:09da
   295 02fa:09f0   297 02fa:0a0f   298 02fa:0a22   300 02fa:0a3a
   301 02fa:0a56   302 02fa:0a5b   303 02fa:0a60   304 02fa:0a6b
   307 02fa:0a70   308 02fa:0a7b   309 02fa:0a85   311 02fa:0a8b
   312 02fa:0aba   313 02fa:0abd   314 02fa:0ad3   315 02fa:0ad6
   316 02fa:0aec   318 02fa:0af6   319 02fa:0b0c   329 02fa:0b14
   331 02fa:0bfe   332 02fa:0c01   333 02fa:0c17   335 02fa:0c1a
   336 02fa:0c37   337 02fa:0c3a   338 02fa:0c50   339 02fa:0c53
   340 02fa:0c69   341 02fa:0c6c   344 02fa:0c8e   345 02fa:0c91
   347 02fa:0ca8   351 02fa:0cae   352 02fa:0cd4   353 02fa:0cd7
   357 02fa:0ced   358 02fa:0cf7   359 02fa:0d05   360 02fa:0d0a
   361 02fa:0d15   362 02fa:0d32   363 02fa:0d37   365 02fa:0d3c
   366 02fa:0d51   369 02fa:0d54   371 02fa:0d72   373 02fa:0d7e
   375 02fa:0d89   378 02fa:0dc8   379 02fa:0dcb   380 02fa:0dea
   381 02fa:0df9   383 02fa:0e03   385 02fa:0e24   387 02fa:0e33
   390 02fa:0e36   391 02fa:0e40   392 02fa:0e48   394 02fa:0e6c
   396 02fa:0e8f   398 02fa:0e99   400 02fa:0eba   401 02fa:0eda
   402 02fa:0ee9   404 02fa:0ef7   405 02fa:0f21   410 02fa:0f4b
   413 02fa:0f70   415 02fa:0f7f   417 02fa:0f91   418 02fa:0fae
   422 02fa:0fd8   423 02fa:101d   425 02fa:1020   426 02fa:103d
   427 02fa:106c   428 02fa:1096   429 02fa:10c7   432 02fa:10ca
   433 02fa:10cd   435 02fa:10f0   437 02fa:10f6   439 02fa:1116
   440 02fa:113f   445 02fa:1169   448 02fa:1186   451 02fa:1189
   452 02fa:119c   453 02fa:11ae   454 02fa:11b9   458 02fa:11dd
   459 02fa:11ef   462 02fa:1211   464 02fa:121f   467 02fa:122d
   468 02fa:1230   470 02fa:124c   472 02fa:124f     0 02fa:1254

Line numbers for ret\getopt.obj(getopt.c) segment GETOPT_TEXT

    21 041f:0006    25 041f:0013    28 041f:0023    29 041f:0083
    32 041f:0088    33 041f:0098    34 041f:009d    38 041f:00a2
    39 041f:00e7    40 041f:00fc    42 041f:0127    43 041f:013a
    44 041f:0146    46 041f:015b    47 041f:015e    48 041f:017c
    49 041f:018f    50 041f:019b    52 041f:01c6    53 041f:01e8
    54 041f:01f4    56 041f:01f9    57 041f:01ff     0 041f:0204

Line numbers for ret\swat_api.obj(swat_api.ASM) segment SWAT_API_TEXT

    57 043f:0006    80 043f:0006    81 043f:0007    83 043f:0009
    86 043f:000f    91 043f:0012    93 043f:0016    95 043f:0019
   101 043f:001c   102 043f:001e   103 043f:0022   105 043f:0024
   107 043f:0026   109 043f:002c   112 043f:002f   117 043f:0032
   121 043f:0034   123 043f:003a   125 043f:003b   130 043f:003c
   148 043f:003c   150 043f:003d   151 043f:003f   153 043f:0045
   155 043f:0048   157 043f:0049

Line numbers for ret\swatpres.obj(swatpres.ASM) segment NCODE

    71 074d:0002    87 074d:0003    88 074d:0004    89 074d:0005
    90 074d:0007    92 074d:0009    94 074d:000a    95 074d:000d
    96 074d:000e    97 074d:000f    99 074d:0010   101 074d:0011
   102 074d:0014   105 074d:0016   108 074d:0017   123 074d:0018
   125 074d:001b   126 074d:001d   127 074d:0021   129 074d:0023
   130 074d:0025   131 074d:0027   132 074d:002b   134 074d:002d
   135 074d:0031   137 074d:0033   139 074d:0034   140 074d:0035
   141 074d:0039   143 074d:003a   145 074d:003d   175 074d:003e
   177 074d:0043   178 074d:0046   181 074d:0048   182 074d:0049
   185 074d:004a   186 074d:004c   189 074d:0050   190 074d:0054
   192 074d:0058   193 074d:005c   194 074d:005f   196 074d:0061
   197 074d:0065   198 074d:0068   200 074d:006a   203 074d:006c
   204 074d:006e   207 074d:0076   209 074d:007c   211 074d:007e
   214 074d:0082   215 074d:0084   217 074d:0088   220 074d:008a
   221 074d:008d   222 074d:008f   226 074d:0091   228 074d:0093
   231 074d:0098   232 074d:009b   234 074d:009c

Program entry point at 0443:001A
