
 Start  Stop   Length Name                   Class
 00000H 00017H 00018H DATA                   PROG
 00018H 00068H 00051H CODE                   PROG
 00069H 00069H 00000H ZCODE                  PROG
 00069H 00220H 001B8H NCODE                  PROG
 00224H 00397H 00174H NDATA                  PROG
 003A0H 003A0H 00000H STACK                  PROG

 Origin   Group
 0000:0   PSPGROUP
 0000:0   PGROUP
 0040:0   CGROUP

  Address         Publics by Name

 0000:0321       CMDBUFF
 0000:0371       CMDBUFF_END
 0000:0319       CMDMSG
 0000:02E2       CMDOVF_MSG
 0000:0016       CMDTAB
 0000:0187       CPUTYPE
 0000:00A9       FIND_WHITE
 0000:0000       HDR
 0000:00DA       INIT_COM
 0000:00B8       INIT_DRV
 0000:0224       INIT_MSG
 0000:0069       INIT_TSR
 0000:0023       INTERRUPT
 0000:008C       IZITWS
 0000:0186       LCL_INT67
 0000:00CF       LOWERCASE
 0000:037C       MAXNAME
 0000:0273       NO386_MSG
 0000:02C0       NOCMD_MSG
 0000:0295       NOSWAT_MSG
 0000:019C       OPEN_DEV
 0000:0373       PBCMDTAIL
 0000:002C  Abs  PSP_ENVIR_PTR
 0000:0080  Abs  PSP_PARM_COUNT
 0000:0081  Abs  PSP_PARM_STRING
 0000:0012       REQ
 0000:0314       SEPS
 0000:009A       SKIP_WHITE
 0000:0018       STRATEGY
 0000:038A       SWATNAME
 0000:01C2       _SWAT_PRESENT

  Address         Publics by Value

 0000:0000       HDR
 0000:0012       REQ
 0000:0016       CMDTAB
 0000:0018       STRATEGY
 0000:0023       INTERRUPT
 0000:002C  Abs  PSP_ENVIR_PTR
 0000:0069       INIT_TSR
 0000:0080  Abs  PSP_PARM_COUNT
 0000:0081  Abs  PSP_PARM_STRING
 0000:008C       IZITWS
 0000:009A       SKIP_WHITE
 0000:00A9       FIND_WHITE
 0000:00B8       INIT_DRV
 0000:00CF       LOWERCASE
 0000:00DA       INIT_COM
 0000:0186       LCL_INT67
 0000:0187       CPUTYPE
 0000:019C       OPEN_DEV
 0000:01C2       _SWAT_PRESENT
 0000:0224       INIT_MSG
 0000:0273       NO386_MSG
 0000:0295       NOSWAT_MSG
 0000:02C0       NOCMD_MSG
 0000:02E2       CMDOVF_MSG
 0000:0314       SEPS
 0000:0319       CMDMSG
 0000:0321       CMDBUFF
 0000:0371       CMDBUFF_END
 0000:0373       PBCMDTAIL
 0000:037C       MAXNAME
 0000:038A       SWATNAME

Line numbers for ret\swatcmd.obj(swatcmd.ASM) segment CODE

   118 0001:0008   119 0001:000d   121 0001:0012   130 0001:0013
   132 0001:001b   133 0001:001d   136 0001:001f   137 0001:0021
   138 0001:0025   139 0001:0027   141 0001:0029   142 0001:002b
   143 0001:002d   144 0001:002f   145 0001:0033   152 0001:0035
   154 0001:003b   155 0001:0041   156 0001:0046   157 0001:004c
   160 0001:0050   163 0001:0058

Line numbers for ret\swatcmd.obj(swatcmd.ASM) segment NCODE

   192 0006:0009   193 0006:000a   195 0006:000c   196 0006:000f
   200 0006:0011   203 0006:0013   204 0006:0017   205 0006:0019
   206 0006:001a   207 0006:001c   209 0006:001f   210 0006:0022
   211 0006:0024   214 0006:0026   216 0006:0028   229 0006:002c
   231 0006:002e   232 0006:0032   233 0006:0035   235 0006:0037
   237 0006:0039   255 0006:003a   257 0006:003b   258 0006:003e
   262 0006:0040   263 0006:0041   264 0006:0044   266 0006:0046
   268 0006:0047   271 0006:0048   289 0006:0049   291 0006:004a
   292 0006:004d   296 0006:004f   297 0006:0050   298 0006:0053
   300 0006:0055   302 0006:0056   305 0006:0057   319 0006:0058
   320 0006:0059   322 0006:005d   325 0006:0061   326 0006:0064
   329 0006:0067   332 0006:006a   335 0006:006e   358 0006:006f
   359 0006:0071   361 0006:0073   362 0006:0075   364 0006:0077
   366 0006:0079   386 0006:007a   388 0006:0080   390 0006:0081
   391 0006:0084   394 0006:0086   397 0006:0088   399 0006:0090
   402 0006:0091   406 0006:0094   407 0006:0098   409 0006:009a
   410 0006:009b   411 0006:009d   413 0006:009f   414 0006:00a1
   416 0006:00a3   417 0006:00a7   418 0006:00a8   420 0006:00aa
   421 0006:00ac   423 0006:00ae   424 0006:00b0   427 0006:00b2
   429 0006:00b4   430 0006:00b6   433 0006:00b8   435 0006:00bd
   436 0006:00be   439 0006:00bf   442 0006:00c1   443 0006:00c6
   445 0006:00c8   446 0006:00cb   450 0006:00cd   451 0006:00d2
   453 0006:00d4   455 0006:00d6   456 0006:00da   458 0006:00dd
   459 0006:00e2   460 0006:00e4   462 0006:00ea   464 0006:00ed
   465 0006:00f2   466 0006:00f4   468 0006:00fa   471 0006:00fc
   472 0006:00fd   475 0006:00ff   476 0006:0103   479 0006:0105
   480 0006:0109   481 0006:010a   482 0006:010e   485 0006:0110
   486 0006:0114   489 0006:0116   497 0006:011a   498 0006:011e
   501 0006:011f   504 0006:0125

Program entry point at 0000:0069

Line numbers for ret\swatpres.obj(swatpres.ASM) segment NCODE

    71 0006:0126    87 0006:0127    88 0006:0128    89 0006:0129
    90 0006:012b    92 0006:012d    94 0006:012e    95 0006:0131
    96 0006:0132    97 0006:0133    99 0006:0134   101 0006:0135
   102 0006:0138   105 0006:013a   108 0006:013b   123 0006:013c
   125 0006:013f   126 0006:0141   127 0006:0145   129 0006:0147
   130 0006:0149   131 0006:014b   132 0006:014f   134 0006:0151
   135 0006:0155   137 0006:0157   139 0006:0158   140 0006:0159
   141 0006:015d   143 0006:015e   145 0006:0161   175 0006:0162
   177 0006:0167   178 0006:016a   181 0006:016c   182 0006:016d
   185 0006:016e   186 0006:0170   189 0006:0174   190 0006:0178
   192 0006:017c   193 0006:0180   194 0006:0183   196 0006:0185
   197 0006:0189   198 0006:018c   200 0006:018e   203 0006:0190
   204 0006:0192   207 0006:019a   209 0006:01a0   211 0006:01a2
   214 0006:01a6   215 0006:01a8   217 0006:01ac   220 0006:01ae
   221 0006:01b1   222 0006:01b3   226 0006:01b5   228 0006:01b7
   231 0006:01bc   232 0006:01bf   234 0006:01c0